target datalayout = "e-m:e-p270:32:32-p271:32:32-p272:64:64-i64:64-i128:128-f80:128-n8:16:32:64-S128"
target triple = "x86_64-pc-linux-gnu"

%struct.color_node = type { %struct.color_info, i8, i32, i32, i32 }
%struct.color_info = type { i32, [3 x i32] }
%struct.color_rect = type { [3 x i32], [3 x i32] }
%struct.Lab = type { i32, i32, i32 }

; Function Attrs: nounwind uwtable
define internal { i64, i64 } @get_color_from_srgb(i32 noundef %0) #1 {
  %2 = alloca %struct.color_info, align 4
  %3 = alloca i32, align 4
  %4 = alloca %struct.Lab, align 4
  %5 = alloca { i64, i32 }, align 8
  store i32 %0, ptr %3, align 4, !tbaa !36
  call void @llvm.lifetime.start.p0(i64 12, ptr %4) #11
  %6 = load i32, ptr %3, align 4, !tbaa !36
  %7 = call { i64, i32 } @ff_srgb_u8_to_oklab_int(i32 noundef %6)
  store { i64, i32 } %7, ptr %5, align 8
  call void @llvm.memcpy.p0.p0.i64(ptr align 4 %4, ptr align 8 %5, i64 12, i1 false)
  %8 = getelementptr inbounds nuw %struct.color_info, ptr %2, i32 0, i32 0
  %9 = load i32, ptr %3, align 4, !tbaa !36
  store i32 %9, ptr %8, align 4, !tbaa !126
  %10 = getelementptr inbounds nuw %struct.color_info, ptr %2, i32 0, i32 1
  %11 = getelementptr inbounds nuw %struct.Lab, ptr %4, i32 0, i32 0
  %12 = load i32, ptr %11, align 4, !tbaa !109
  store i32 %12, ptr %10, align 4, !tbaa !36
  %13 = getelementptr inbounds i32, ptr %10, i64 1
  %14 = getelementptr inbounds nuw %struct.Lab, ptr %4, i32 0, i32 1
  %15 = load i32, ptr %14, align 4, !tbaa !111
  store i32 %15, ptr %13, align 4, !tbaa !36
  %16 = getelementptr inbounds i32, ptr %10, i64 2
  %17 = getelementptr inbounds nuw %struct.Lab, ptr %4, i32 0, i32 2
  %18 = load i32, ptr %17, align 4, !tbaa !112
  store i32 %18, ptr %16, align 4, !tbaa !36
  call void @llvm.lifetime.end.p0(i64 12, ptr %4) #11
  %19 = load { i64, i64 }, ptr %2, align 4
  ret { i64, i64 } %19
}

; Function Attrs: nounwind uwtable
define internal i32 @colormap_insert(ptr noundef %0, ptr noundef %1, ptr noundef %2, ptr noundef %3, i32 noundef %4, ptr noundef %5) #1 {
  %7 = alloca i32, align 4
  %8 = alloca ptr, align 8
  %9 = alloca ptr, align 8
  %10 = alloca ptr, align 8
  %11 = alloca ptr, align 8
  %12 = alloca i32, align 4
  %13 = alloca ptr, align 8
  %14 = alloca i32, align 4
  %15 = alloca i32, align 4
  %16 = alloca i32, align 4
  %17 = alloca i32, align 4
  %18 = alloca i32, align 4
  %19 = alloca ptr, align 8
  %20 = alloca %struct.color_rect, align 4
  %21 = alloca %struct.color_rect, align 4
  %22 = alloca i32, align 4
  %23 = alloca i32, align 4
  %24 = alloca %struct.color_info, align 4
  store ptr %0, ptr %8, align 8, !tbaa !92
  store ptr %1, ptr %9, align 8, !tbaa !70
  store ptr %2, ptr %10, align 8, !tbaa !71
  store ptr %3, ptr %11, align 8, !tbaa !71
  store i32 %4, ptr %12, align 4, !tbaa !36
  store ptr %5, ptr %13, align 8, !tbaa !94
  call void @llvm.lifetime.start.p0(i64 4, ptr %14) #11
  call void @llvm.lifetime.start.p0(i64 4, ptr %15) #11
  call void @llvm.lifetime.start.p0(i64 4, ptr %16) #11
  call void @llvm.lifetime.start.p0(i64 4, ptr %17) #11
  store i32 -1, ptr %17, align 4, !tbaa !36
  call void @llvm.lifetime.start.p0(i64 4, ptr %18) #11
  store i32 -1, ptr %18, align 4, !tbaa !36
  call void @llvm.lifetime.start.p0(i64 8, ptr %19) #11
  call void @llvm.lifetime.start.p0(i64 24, ptr %20) #11
  call void @llvm.lifetime.start.p0(i64 24, ptr %21) #11
  call void @llvm.lifetime.start.p0(i64 4, ptr %22) #11
  %25 = load ptr, ptr %9, align 8, !tbaa !70
  %26 = load ptr, ptr %11, align 8, !tbaa !71
  %27 = load ptr, ptr %13, align 8, !tbaa !94
  %28 = call i32 @get_next_color(ptr noundef %25, ptr noundef %26, ptr noundef %14, ptr noundef %27)
  store i32 %28, ptr %22, align 4, !tbaa !36
  %29 = load i32, ptr %22, align 4, !tbaa !36
  %30 = icmp slt i32 %29, 0
  br i1 %30, label %31, label %32

31:                                               ; preds = %6
  store i32 -1, ptr %7, align 4
  store i32 1, ptr %23, align 4
  br label %121

32:                                               ; preds = %6
  %33 = load ptr, ptr %10, align 8, !tbaa !71
  %34 = load i32, ptr %33, align 4, !tbaa !36
  %35 = add nsw i32 %34, 1
  store i32 %35, ptr %33, align 4, !tbaa !36
  store i32 %34, ptr %15, align 4, !tbaa !36
  %36 = load ptr, ptr %8, align 8, !tbaa !92
  %37 = load i32, ptr %15, align 4, !tbaa !36
  %38 = sext i32 %37 to i64
  %39 = getelementptr inbounds %struct.color_node, ptr %36, i64 %38
  store ptr %39, ptr %19, align 8, !tbaa !92
  %40 = load i32, ptr %14, align 4, !tbaa !36
  %41 = load ptr, ptr %19, align 8, !tbaa !92
  %42 = getelementptr inbounds nuw %struct.color_node, ptr %41, i32 0, i32 2
  store i32 %40, ptr %42, align 4, !tbaa !96
  %43 = load i32, ptr %22, align 4, !tbaa !36
  %44 = trunc i32 %43 to i8
  %45 = load ptr, ptr %19, align 8, !tbaa !92
  %46 = getelementptr inbounds nuw %struct.color_node, ptr %45, i32 0, i32 1
  store i8 %44, ptr %46, align 4, !tbaa !99
  %47 = load ptr, ptr %19, align 8, !tbaa !92
  %48 = getelementptr inbounds nuw %struct.color_node, ptr %47, i32 0, i32 0
  call void @llvm.lifetime.start.p0(i64 16, ptr %24) #11
  %49 = load ptr, ptr %11, align 8, !tbaa !71
  %50 = load i32, ptr %22, align 4, !tbaa !36
  %51 = sext i32 %50 to i64
  %52 = getelementptr inbounds i32, ptr %49, i64 %51
  %53 = load i32, ptr %52, align 4, !tbaa !36
  %54 = call { i64, i64 } @get_color_from_srgb(i32 noundef %53)
  %55 = getelementptr inbounds nuw { i64, i64 }, ptr %24, i32 0, i32 0
  %56 = extractvalue { i64, i64 } %54, 0
  store i64 %56, ptr %55, align 4
  %57 = getelementptr inbounds nuw { i64, i64 }, ptr %24, i32 0, i32 1
  %58 = extractvalue { i64, i64 } %54, 1
  store i64 %58, ptr %57, align 4
  call void @llvm.memcpy.p0.p0.i64(ptr align 4 %48, ptr align 4 %24, i64 16, i1 false), !tbaa.struct !100
  call void @llvm.lifetime.end.p0(i64 16, ptr %24) #11
  %59 = load ptr, ptr %9, align 8, !tbaa !70
  %60 = load i32, ptr %22, align 4, !tbaa !36
  %61 = sext i32 %60 to i64
  %62 = getelementptr inbounds i8, ptr %59, i64 %61
  store i8 1, ptr %62, align 1, !tbaa !89
  %63 = load ptr, ptr %13, align 8, !tbaa !94
  call void @llvm.memcpy.p0.p0.i64(ptr align 4 %21, ptr align 4 %63, i64 24, i1 false), !tbaa.struct !101
  call void @llvm.memcpy.p0.p0.i64(ptr align 4 %20, ptr align 4 %21, i64 24, i1 false), !tbaa.struct !101
  %64 = load ptr, ptr %19, align 8, !tbaa !92
  %65 = getelementptr inbounds nuw %struct.color_node, ptr %64, i32 0, i32 0
  %66 = getelementptr inbounds nuw %struct.color_info, ptr %65, i32 0, i32 1
  %67 = load i32, ptr %14, align 4, !tbaa !36
  %68 = sext i32 %67 to i64
  %69 = getelementptr inbounds [3 x i32], ptr %66, i64 0, i64 %68
  %70 = load i32, ptr %69, align 4, !tbaa !36
  store i32 %70, ptr %16, align 4, !tbaa !36
  %71 = load i32, ptr %16, align 4, !tbaa !36
  %72 = getelementptr inbounds nuw %struct.color_rect, ptr %20, i32 0, i32 1
  %73 = load i32, ptr %14, align 4, !tbaa !36
  %74 = sext i32 %73 to i64
  %75 = getelementptr inbounds [3 x i32], ptr %72, i64 0, i64 %74
  store i32 %71, ptr %75, align 4, !tbaa !36
  %76 = load i32, ptr %16, align 4, !tbaa !36
  %77 = add nsw i32 %76, 1
  %78 = icmp sgt i32 %77, 65535
  br i1 %78, label %79, label %80

79:                                               ; preds = %32
  br label %83

80:                                               ; preds = %32
  %81 = load i32, ptr %16, align 4, !tbaa !36
  %82 = add nsw i32 %81, 1
  br label %83

83:                                               ; preds = %80, %79
  %84 = phi i32 [ 65535, %79 ], [ %82, %80 ]
  %85 = getelementptr inbounds nuw %struct.color_rect, ptr %21, i32 0, i32 0
  %86 = load i32, ptr %14, align 4, !tbaa !36
  %87 = sext i32 %86 to i64
  %88 = getelementptr inbounds [3 x i32], ptr %85, i64 0, i64 %87
  store i32 %84, ptr %88, align 4, !tbaa !36
  %89 = load ptr, ptr %8, align 8, !tbaa !92
  %90 = load ptr, ptr %9, align 8, !tbaa !70
  %91 = load ptr, ptr %10, align 8, !tbaa !71
  %92 = load ptr, ptr %11, align 8, !tbaa !71
  %93 = load i32, ptr %12, align 4, !tbaa !36
  %94 = call i32 @colormap_insert(ptr noundef %89, ptr noundef %90, ptr noundef %91, ptr noundef %92, i32 noundef %93, ptr noundef %20)
  store i32 %94, ptr %17, align 4, !tbaa !36
  %95 = getelementptr inbounds nuw %struct.color_rect, ptr %21, i32 0, i32 0
  %96 = load i32, ptr %14, align 4, !tbaa !36
  %97 = sext i32 %96 to i64
  %98 = getelementptr inbounds [3 x i32], ptr %95, i64 0, i64 %97
  %99 = load i32, ptr %98, align 4, !tbaa !36
  %100 = getelementptr inbounds nuw %struct.color_rect, ptr %21, i32 0, i32 1
  %101 = load i32, ptr %14, align 4, !tbaa !36
  %102 = sext i32 %101 to i64
  %103 = getelementptr inbounds [3 x i32], ptr %100, i64 0, i64 %102
  %104 = load i32, ptr %103, align 4, !tbaa !36
  %105 = icmp sle i32 %99, %104
  br i1 %105, label %106, label %113

106:                                              ; preds = %83
  %107 = load ptr, ptr %8, align 8, !tbaa !92
  %108 = load ptr, ptr %9, align 8, !tbaa !70
  %109 = load ptr, ptr %10, align 8, !tbaa !71
  %110 = load ptr, ptr %11, align 8, !tbaa !71
  %111 = load i32, ptr %12, align 4, !tbaa !36
  %112 = call i32 @colormap_insert(ptr noundef %107, ptr noundef %108, ptr noundef %109, ptr noundef %110, i32 noundef %111, ptr noundef %21)
  store i32 %112, ptr %18, align 4, !tbaa !36
  br label %113

113:                                              ; preds = %106, %83
  %114 = load i32, ptr %17, align 4, !tbaa !36
  %115 = load ptr, ptr %19, align 8, !tbaa !92
  %116 = getelementptr inbounds nuw %struct.color_node, ptr %115, i32 0, i32 3
  store i32 %114, ptr %116, align 4, !tbaa !102
  %117 = load i32, ptr %18, align 4, !tbaa !36
  %118 = load ptr, ptr %19, align 8, !tbaa !92
  %119 = getelementptr inbounds nuw %struct.color_node, ptr %118, i32 0, i32 4
  store i32 %117, ptr %119, align 4, !tbaa !103
  %120 = load i32, ptr %15, align 4, !tbaa !36
  store i32 %120, ptr %7, align 4
  store i32 1, ptr %23, align 4
  br label %121

121:                                              ; preds = %113, %31
  call void @llvm.lifetime.end.p0(i64 4, ptr %22) #11
  call void @llvm.lifetime.end.p0(i64 24, ptr %21) #11
  call void @llvm.lifetime.end.p0(i64 24, ptr %20) #11
  call void @llvm.lifetime.end.p0(i64 8, ptr %19) #11
  call void @llvm.lifetime.end.p0(i64 4, ptr %18) #11
  call void @llvm.lifetime.end.p0(i64 4, ptr %17) #11
  call void @llvm.lifetime.end.p0(i64 4, ptr %16) #11
  call void @llvm.lifetime.end.p0(i64 4, ptr %15) #11
  call void @llvm.lifetime.end.p0(i64 4, ptr %14) #11
  %122 = load i32, ptr %7, align 4
  ret i32 %122
}