; Function Attrs: nounwind uwtable
define internal fastcc i32 @colormap_insert(ptr noundef %0, ptr noundef nonnull %1, ptr noundef nonnull %2, ptr noundef %3, ptr noundef nonnull readonly captures(none) %4) unnamed_addr #1 {
  %6 = alloca i32, align 4
  %7 = alloca %struct.color_rect, align 4
  %8 = alloca %struct.color_rect, align 4
  call void @llvm.lifetime.start.p0(i64 4, ptr nonnull %6) #13
  call void @llvm.lifetime.start.p0(i64 24, ptr nonnull %7) #13
  call void @llvm.lifetime.start.p0(i64 24, ptr nonnull %8) #13
  %9 = call fastcc i32 @get_next_color(ptr noundef %1, ptr noundef %3, ptr noundef %6, ptr noundef %4)
  %10 = icmp slt i32 %9, 0
  br i1 %10, label %43, label %11

11:                                               ; preds = %5
  %12 = load i32, ptr %2, align 4, !tbaa !33
  %13 = add nsw i32 %12, 1
  store i32 %13, ptr %2, align 4, !tbaa !33
  %14 = sext i32 %12 to i64
  %15 = getelementptr inbounds %struct.color_node, ptr %0, i64 %14
  %16 = load i32, ptr %6, align 4, !tbaa !33
  %17 = getelementptr inbounds nuw i8, ptr %15, i64 20
  store i32 %16, ptr %17, align 4, !tbaa !89
  %18 = trunc nuw i32 %9 to i8
  %19 = getelementptr inbounds nuw i8, ptr %15, i64 16
  store i8 %18, ptr %19, align 4, !tbaa !92
  %20 = zext nneg i32 %9 to i64
  %21 = getelementptr inbounds nuw i32, ptr %3, i64 %20
  %22 = load i32, ptr %21, align 4, !tbaa !33
  %23 = tail call { i64, i32 } @ff_srgb_u8_to_oklab_int(i32 noundef %22) #13
  %.fca.0.extract.i = extractvalue { i64, i32 } %23, 0
  %.fca.1.extract.i = extractvalue { i64, i32 } %23, 1
  %.sroa.24.0.insert.ext.i = shl i64 %.fca.0.extract.i, 32
  %.sroa.03.0.insert.ext.i = zext i32 %22 to i64
  %.sroa.03.0.insert.insert.i = or disjoint i64 %.sroa.24.0.insert.ext.i, %.sroa.03.0.insert.ext.i
  %.sroa.55.8.insert.ext.i = zext i32 %.fca.1.extract.i to i64
  %.sroa.3.8.insert.insert.i = tail call i64 @llvm.fshl.i64(i64 %.sroa.55.8.insert.ext.i, i64 %.fca.0.extract.i, i64 32)
  store i64 %.sroa.03.0.insert.insert.i, ptr %15, align 4
  %.sroa.4.0..sroa_idx = getelementptr inbounds nuw i8, ptr %15, i64 8
  store i64 %.sroa.3.8.insert.insert.i, ptr %.sroa.4.0..sroa_idx, align 4, !tbaa !76
  %24 = getelementptr inbounds nuw i8, ptr %1, i64 %20
  store i8 1, ptr %24, align 1, !tbaa !76
  call void @llvm.memcpy.p0.p0.i64(ptr noundef nonnull align 4 dereferenceable(24) %8, ptr noundef nonnull align 4 dereferenceable(24) %4, i64 24, i1 false), !tbaa.struct !93
  call void @llvm.memcpy.p0.p0.i64(ptr noundef nonnull align 4 dereferenceable(24) %7, ptr noundef nonnull align 4 dereferenceable(24) %4, i64 24, i1 false)
  %25 = getelementptr inbounds nuw i8, ptr %15, i64 4
  %26 = sext i32 %16 to i64
  %27 = getelementptr inbounds [3 x i32], ptr %25, i64 0, i64 %26
  %28 = load i32, ptr %27, align 4, !tbaa !33
  %29 = getelementptr inbounds nuw i8, ptr %7, i64 12
  %30 = getelementptr inbounds [3 x i32], ptr %29, i64 0, i64 %26
  store i32 %28, ptr %30, align 4, !tbaa !33
  %31 = tail call i32 @llvm.smin.i32(i32 %28, i32 65534)
  %32 = add nsw i32 %31, 1
  %33 = getelementptr inbounds [3 x i32], ptr %8, i64 0, i64 %26
  store i32 %32, ptr %33, align 4, !tbaa !33
  %34 = call fastcc i32 @colormap_insert(ptr noundef %0, ptr noundef %1, ptr noundef %2, ptr noundef %3, ptr noundef %7)
  %35 = getelementptr inbounds nuw i8, ptr %8, i64 12
  %36 = getelementptr inbounds [3 x i32], ptr %35, i64 0, i64 %26
  %37 = load i32, ptr %36, align 4, !tbaa !33
  %.not.not = icmp slt i32 %31, %37
  br i1 %.not.not, label %38, label %40

38:                                               ; preds = %11
  %39 = call fastcc i32 @colormap_insert(ptr noundef nonnull %0, ptr noundef %1, ptr noundef %2, ptr noundef nonnull %3, ptr noundef %8)
  br label %40

40:                                               ; preds = %38, %11
  %.035 = phi i32 [ %39, %38 ], [ -1, %11 ]
  %41 = getelementptr inbounds nuw i8, ptr %15, i64 24
  store i32 %34, ptr %41, align 4, !tbaa !94
  %42 = getelementptr inbounds nuw i8, ptr %15, i64 28
  store i32 %.035, ptr %42, align 4, !tbaa !95
  br label %43

43:                                               ; preds = %5, %40
  %.0 = phi i32 [ %12, %40 ], [ -1, %5 ]
  call void @llvm.lifetime.end.p0(i64 24, ptr nonnull %8) #13
  call void @llvm.lifetime.end.p0(i64 24, ptr nonnull %7) #13
  call void @llvm.lifetime.end.p0(i64 4, ptr nonnull %6) #13
  ret i32 %.0
}